target datalayout = "e-m:e-p270:32:32-p271:32:32-p272:64:64-i64:64-i128:128-f80:128-n8:16:32:64-S128"
target triple = "x86_64-pc-linux-gnu"

%struct.AVRational = type { i32, i32 }
%struct.AVCodecParserContext = type { ptr, ptr, i64, i64, i64, i32, i32, i64, i64, i64, i64, i32, i32, [4 x i64], [4 x i64], [4 x i64], i32, i64, [4 x i64], i32, i32, i32, i32, [4 x i64], i64, i64, i32, i32, i32, i32, i32, i32, i32, i32, i32 }
%struct.GetBitContext = type { ptr, ptr, i32, i32, i32 }
%struct.AVCodecContext = type { ptr, i32, i32, ptr, i32, i32, ptr, ptr, ptr, i64, i32, i32, ptr, i32, %struct.AVRational, %struct.AVRational, %struct.AVRational, i32, i32, i32, i32, i32, %struct.AVRational, i32, i32, i32, i32, i32, i32, i32, i32, i32, i32, i32, ptr, ptr, i32, float, float, float, float, float, float, float, float, float, i32, i32, i32, i32, i32, i32, i32, i32, i32, i32, i32, i32, ptr, ptr, ptr, i32, i32, i32, i32, i32, i32, i32, i32, i32, i32, %struct.AVChannelLayout, i32, i32, i32, i32, i32, i32, i32, i32, ptr, i32, i32, i32, float, float, i32, i32, i32, i32, i32, ptr, i64, i64, float, float, i32, i32, ptr, ptr, i32, i32, i32, i32, i32, ptr, ptr, ptr, ptr, i32, i32, [8 x i64], i32, i32, i32, i32, i32, i32, i32, ptr, ptr, i32, i32, i32, i32, i32, i32, i32, i32, i32, i32, ptr, ptr, i32, i32, ptr, ptr, ptr, ptr, i32, i32, i64, i32, i32, i64, ptr, i64, ptr, i32, ptr, i32 }
%struct.AVChannelLayout = type { i32, i32, %union.anon, ptr }
%union.anon = type { i64 }

@parse_avs2_seq_header.precision = internal constant [8 x i8] c"\00\08\0A\00\00\00\00\00", align 1
@ff_avs2_frame_rate_tab = external constant [16 x %struct.AVRational], align 16
@.str = private unnamed_addr constant [178 x i8] c"AVS2 parse seq HDR: profile %x, level %x, width %d, height %d, chroma %d, sample_precision %d bits, encoding_precision %d bits, aspect_ratio 0x%x, framerate %d/%d, low_delay %d\0A\00", align 1

; Function Attrs: alwaysinline nounwind willreturn memory(none) uwtable
define internal i32 @av_bswap32(i32 noundef %0) #4 {
  %2 = alloca i32, align 4
  store i32 %0, ptr %2, align 4, !tbaa !18
  %3 = load i32, ptr %2, align 4, !tbaa !18
  %4 = shl i32 %3, 8
  %5 = and i32 %4, 65280
  %6 = load i32, ptr %2, align 4, !tbaa !18
  %7 = lshr i32 %6, 8
  %8 = and i32 %7, 255
  %9 = or i32 %5, %8
  %10 = shl i32 %9, 16
  %11 = load i32, ptr %2, align 4, !tbaa !18
  %12 = lshr i32 %11, 16
  %13 = shl i32 %12, 8
  %14 = and i32 %13, 65280
  %15 = load i32, ptr %2, align 4, !tbaa !18
  %16 = lshr i32 %15, 16
  %17 = lshr i32 %16, 8
  %18 = and i32 %17, 255
  %19 = or i32 %14, %18
  %20 = or i32 %10, %19
  ret i32 %20
}

; Function Attrs: inlinehint nounwind uwtable
define internal i32 @init_get_bits(ptr noundef %0, ptr noundef %1, i32 noundef %2) #3 {
  %4 = alloca ptr, align 8
  %5 = alloca ptr, align 8
  %6 = alloca i32, align 4
  %7 = alloca i32, align 4
  %8 = alloca i32, align 4
  store ptr %0, ptr %4, align 8, !tbaa !59
  store ptr %1, ptr %5, align 8, !tbaa !16
  store i32 %2, ptr %6, align 4, !tbaa !18
  call void @llvm.lifetime.start.p0(i64 4, ptr %7) #5
  call void @llvm.lifetime.start.p0(i64 4, ptr %8) #5
  store i32 0, ptr %8, align 4, !tbaa !18
  %9 = load i32, ptr %6, align 4, !tbaa !18
  %10 = icmp sge i32 %9, 2147483135
  br i1 %10, label %17, label %11

11:                                               ; preds = %3
  %12 = load i32, ptr %6, align 4, !tbaa !18
  %13 = icmp slt i32 %12, 0
  br i1 %13, label %17, label %14

14:                                               ; preds = %11
  %15 = load ptr, ptr %5, align 8, !tbaa !16
  %16 = icmp ne ptr %15, null
  br i1 %16, label %18, label %17

17:                                               ; preds = %14, %11, %3
  store i32 0, ptr %6, align 4, !tbaa !18
  store ptr null, ptr %5, align 8, !tbaa !16
  store i32 -1094995529, ptr %8, align 4, !tbaa !18
  br label %18

18:                                               ; preds = %17, %14
  %19 = load i32, ptr %6, align 4, !tbaa !18
  %20 = add nsw i32 %19, 7
  %21 = ashr i32 %20, 3
  store i32 %21, ptr %7, align 4, !tbaa !18
  %22 = load ptr, ptr %5, align 8, !tbaa !16
  %23 = load ptr, ptr %4, align 8, !tbaa !59
  %24 = getelementptr inbounds nuw %struct.GetBitContext, ptr %23, i32 0, i32 0
  store ptr %22, ptr %24, align 8, !tbaa !64
  %25 = load i32, ptr %6, align 4, !tbaa !18
  %26 = load ptr, ptr %4, align 8, !tbaa !59
  %27 = getelementptr inbounds nuw %struct.GetBitContext, ptr %26, i32 0, i32 3
  store i32 %25, ptr %27, align 4, !tbaa !65
  %28 = load i32, ptr %6, align 4, !tbaa !18
  %29 = add nsw i32 %28, 8
  %30 = load ptr, ptr %4, align 8, !tbaa !59
  %31 = getelementptr inbounds nuw %struct.GetBitContext, ptr %30, i32 0, i32 4
  store i32 %29, ptr %31, align 8, !tbaa !63
  %32 = load ptr, ptr %5, align 8, !tbaa !16
  %33 = load i32, ptr %7, align 4, !tbaa !18
  %34 = sext i32 %33 to i64
  %35 = getelementptr inbounds i8, ptr %32, i64 %34
  %36 = load ptr, ptr %4, align 8, !tbaa !59
  %37 = getelementptr inbounds nuw %struct.GetBitContext, ptr %36, i32 0, i32 1
  store ptr %35, ptr %37, align 8, !tbaa !66
  %38 = load ptr, ptr %4, align 8, !tbaa !59
  %39 = getelementptr inbounds nuw %struct.GetBitContext, ptr %38, i32 0, i32 2
  store i32 0, ptr %39, align 8, !tbaa !61
  %40 = load i32, ptr %8, align 4, !tbaa !18
  call void @llvm.lifetime.end.p0(i64 4, ptr %8) #5
  call void @llvm.lifetime.end.p0(i64 4, ptr %7) #5
  ret i32 %40
}

; Function Attrs: inlinehint nounwind uwtable
define internal void @skip_bits(ptr noundef %0, i32 noundef %1) #3 {
  %3 = alloca ptr, align 8
  %4 = alloca i32, align 4
  %5 = alloca i32, align 4
  %6 = alloca i32, align 4
  store ptr %0, ptr %3, align 8, !tbaa !59
  store i32 %1, ptr %4, align 4, !tbaa !18
  call void @llvm.lifetime.start.p0(i64 4, ptr %5) #5
  %7 = load ptr, ptr %3, align 8, !tbaa !59
  %8 = getelementptr inbounds nuw %struct.GetBitContext, ptr %7, i32 0, i32 2
  %9 = load i32, ptr %8, align 8, !tbaa !61
  store i32 %9, ptr %5, align 4, !tbaa !18
  call void @llvm.lifetime.start.p0(i64 4, ptr %6) #5
  %10 = load ptr, ptr %3, align 8, !tbaa !59
  %11 = getelementptr inbounds nuw %struct.GetBitContext, ptr %10, i32 0, i32 4
  %12 = load i32, ptr %11, align 8, !tbaa !63
  store i32 %12, ptr %6, align 4, !tbaa !18
  %13 = load i32, ptr %6, align 4, !tbaa !18
  %14 = load i32, ptr %5, align 4, !tbaa !18
  %15 = load i32, ptr %4, align 4, !tbaa !18
  %16 = add i32 %14, %15
  %17 = icmp ugt i32 %13, %16
  br i1 %17, label %18, label %22

18:                                               ; preds = %2
  %19 = load i32, ptr %5, align 4, !tbaa !18
  %20 = load i32, ptr %4, align 4, !tbaa !18
  %21 = add i32 %19, %20
  br label %24

22:                                               ; preds = %2
  %23 = load i32, ptr %6, align 4, !tbaa !18
  br label %24

24:                                               ; preds = %22, %18
  %25 = phi i32 [ %21, %18 ], [ %23, %22 ]
  store i32 %25, ptr %5, align 4, !tbaa !18
  %26 = load i32, ptr %5, align 4, !tbaa !18
  %27 = load ptr, ptr %3, align 8, !tbaa !59
  %28 = getelementptr inbounds nuw %struct.GetBitContext, ptr %27, i32 0, i32 2
  store i32 %26, ptr %28, align 8, !tbaa !61
  call void @llvm.lifetime.end.p0(i64 4, ptr %6) #5
  call void @llvm.lifetime.end.p0(i64 4, ptr %5) #5
  ret void
}

; Function Attrs: inlinehint nounwind uwtable
define internal i32 @get_bits(ptr noundef %0, i32 noundef %1) #3 {
  %3 = alloca ptr, align 8
  %4 = alloca i32, align 4
  %5 = alloca i32, align 4
  %6 = alloca i32, align 4
  %7 = alloca i32, align 4
  %8 = alloca i32, align 4
  store ptr %0, ptr %3, align 8, !tbaa !59
  store i32 %1, ptr %4, align 4, !tbaa !18
  call void @llvm.lifetime.start.p0(i64 4, ptr %5) #5
  call void @llvm.lifetime.start.p0(i64 4, ptr %6) #5
  %9 = load ptr, ptr %3, align 8, !tbaa !59
  %10 = getelementptr inbounds nuw %struct.GetBitContext, ptr %9, i32 0, i32 2
  %11 = load i32, ptr %10, align 8, !tbaa !61
  store i32 %11, ptr %6, align 4, !tbaa !18
  call void @llvm.lifetime.start.p0(i64 4, ptr %7) #5
  call void @llvm.lifetime.start.p0(i64 4, ptr %8) #5
  %12 = load ptr, ptr %3, align 8, !tbaa !59
  %13 = getelementptr inbounds nuw %struct.GetBitContext, ptr %12, i32 0, i32 4
  %14 = load i32, ptr %13, align 8, !tbaa !63
  store i32 %14, ptr %8, align 4, !tbaa !18
  %15 = load ptr, ptr %3, align 8, !tbaa !59
  %16 = getelementptr inbounds nuw %struct.GetBitContext, ptr %15, i32 0, i32 0
  %17 = load ptr, ptr %16, align 8, !tbaa !64
  %18 = load i32, ptr %6, align 4, !tbaa !18
  %19 = lshr i32 %18, 3
  %20 = zext i32 %19 to i64
  %21 = getelementptr inbounds nuw i8, ptr %17, i64 %20
  %22 = load i32, ptr %21, align 1, !tbaa !30
  %23 = call i32 @av_bswap32(i32 noundef %22) #6
  %24 = load i32, ptr %6, align 4, !tbaa !18
  %25 = and i32 %24, 7
  %26 = shl i32 %23, %25
  %27 = lshr i32 %26, 0
  store i32 %27, ptr %7, align 4, !tbaa !18
  %28 = load i32, ptr %7, align 4, !tbaa !18
  %29 = load i32, ptr %4, align 4, !tbaa !18
  %30 = sub nsw i32 32, %29
  %31 = lshr i32 %28, %30
  store i32 %31, ptr %5, align 4, !tbaa !18
  %32 = load i32, ptr %8, align 4, !tbaa !18
  %33 = load i32, ptr %6, align 4, !tbaa !18
  %34 = load i32, ptr %4, align 4, !tbaa !18
  %35 = add i32 %33, %34
  %36 = icmp ugt i32 %32, %35
  br i1 %36, label %37, label %41

37:                                               ; preds = %2
  %38 = load i32, ptr %6, align 4, !tbaa !18
  %39 = load i32, ptr %4, align 4, !tbaa !18
  %40 = add i32 %38, %39
  br label %43

41:                                               ; preds = %2
  %42 = load i32, ptr %8, align 4, !tbaa !18
  br label %43

43:                                               ; preds = %41, %37
  %44 = phi i32 [ %40, %37 ], [ %42, %41 ]
  store i32 %44, ptr %6, align 4, !tbaa !18
  %45 = load i32, ptr %6, align 4, !tbaa !18
  %46 = load ptr, ptr %3, align 8, !tbaa !59
  %47 = getelementptr inbounds nuw %struct.GetBitContext, ptr %46, i32 0, i32 2
  store i32 %45, ptr %47, align 8, !tbaa !61
  %48 = load i32, ptr %5, align 4, !tbaa !18
  call void @llvm.lifetime.end.p0(i64 4, ptr %8) #5
  call void @llvm.lifetime.end.p0(i64 4, ptr %7) #5
  call void @llvm.lifetime.end.p0(i64 4, ptr %6) #5
  call void @llvm.lifetime.end.p0(i64 4, ptr %5) #5
  ret i32 %48
}

; Function Attrs: inlinehint nounwind uwtable
define internal i32 @init_get_bits8(ptr noundef %0, ptr noundef %1, i32 noundef %2) #3 {
  %4 = alloca ptr, align 8
  %5 = alloca ptr, align 8
  %6 = alloca i32, align 4
  store ptr %0, ptr %4, align 8, !tbaa !59
  store ptr %1, ptr %5, align 8, !tbaa !16
  store i32 %2, ptr %6, align 4, !tbaa !18
  %7 = load i32, ptr %6, align 4, !tbaa !18
  %8 = icmp sgt i32 %7, 268435455
  br i1 %8, label %12, label %9

9:                                                ; preds = %3
  %10 = load i32, ptr %6, align 4, !tbaa !18
  %11 = icmp slt i32 %10, 0
  br i1 %11, label %12, label %13

12:                                               ; preds = %9, %3
  store i32 -1, ptr %6, align 4, !tbaa !18
  br label %13

13:                                               ; preds = %12, %9
  %14 = load ptr, ptr %4, align 8, !tbaa !59
  %15 = load ptr, ptr %5, align 8, !tbaa !16
  %16 = load i32, ptr %6, align 4, !tbaa !18
  %17 = mul nsw i32 %16, 8
  %18 = call i32 @init_get_bits(ptr noundef %14, ptr noundef %15, i32 noundef %17)
  ret i32 %18
}

; Function Attrs: nounwind uwtable
define internal void @parse_avs2_seq_header(ptr noundef %0, ptr noundef %1, i32 noundef %2, ptr noundef %3) #0 {
  %5 = alloca ptr, align 8
  %6 = alloca ptr, align 8
  %7 = alloca i32, align 4
  %8 = alloca ptr, align 8
  %9 = alloca %struct.GetBitContext, align 8
  %10 = alloca i32, align 4
  %11 = alloca i32, align 4
  %12 = alloca i32, align 4
  %13 = alloca i32, align 4
  %14 = alloca i32, align 4
  %15 = alloca i32, align 4
  %16 = alloca i32, align 4
  %17 = alloca i32, align 4
  %18 = alloca i32, align 4
  %19 = alloca i32, align 4
  %20 = alloca i32, align 4
  %21 = alloca i32, align 4
  %22 = alloca i32, align 4
  store ptr %0, ptr %5, align 8, !tbaa !4
  store ptr %1, ptr %6, align 8, !tbaa !16
  store i32 %2, ptr %7, align 4, !tbaa !18
  store ptr %3, ptr %8, align 8, !tbaa !9
  call void @llvm.lifetime.start.p0(i64 32, ptr %9) #5
  call void @llvm.lifetime.start.p0(i64 4, ptr %10) #5
  call void @llvm.lifetime.start.p0(i64 4, ptr %11) #5
  call void @llvm.lifetime.start.p0(i64 4, ptr %12) #5
  call void @llvm.lifetime.start.p0(i64 4, ptr %13) #5
  call void @llvm.lifetime.start.p0(i64 4, ptr %14) #5
  call void @llvm.lifetime.start.p0(i64 4, ptr %15) #5
  call void @llvm.lifetime.start.p0(i64 4, ptr %16) #5
  store i32 1, ptr %16, align 4, !tbaa !18
  call void @llvm.lifetime.start.p0(i64 4, ptr %17) #5
  call void @llvm.lifetime.start.p0(i64 4, ptr %18) #5
  call void @llvm.lifetime.start.p0(i64 4, ptr %19) #5
  call void @llvm.lifetime.start.p0(i64 4, ptr %20) #5
  call void @llvm.lifetime.start.p0(i64 4, ptr %21) #5
  store i32 15, ptr %21, align 4, !tbaa !18
  %23 = load i32, ptr %7, align 4, !tbaa !18
  %24 = icmp slt i32 %23, 15
  br i1 %24, label %25, label %26

25:                                               ; preds = %4
  store i32 1, ptr %22, align 4
  br label %128

26:                                               ; preds = %4
  %27 = load ptr, ptr %6, align 8, !tbaa !16
  %28 = call i32 @init_get_bits8(ptr noundef %9, ptr noundef %27, i32 noundef 15)
  store i32 %28, ptr %20, align 4, !tbaa !18
  %29 = load ptr, ptr %5, align 8, !tbaa !4
  %30 = getelementptr inbounds nuw %struct.AVCodecParserContext, ptr %29, i32 0, i32 19
  store i32 1, ptr %30, align 8, !tbaa !34
  %31 = load ptr, ptr %5, align 8, !tbaa !4
  %32 = getelementptr inbounds nuw %struct.AVCodecParserContext, ptr %31, i32 0, i32 5
  store i32 1, ptr %32, align 8, !tbaa !35
  %33 = call i32 @get_bits(ptr noundef %9, i32 noundef 8)
  store i32 %33, ptr %10, align 4, !tbaa !18
  %34 = call i32 @get_bits(ptr noundef %9, i32 noundef 8)
  store i32 %34, ptr %11, align 4, !tbaa !18
  call void @skip_bits(ptr noundef %9, i32 noundef 2)
  %35 = call i32 @get_bits(ptr noundef %9, i32 noundef 14)
  store i32 %35, ptr %12, align 4, !tbaa !18
  %36 = call i32 @get_bits(ptr noundef %9, i32 noundef 14)
  store i32 %36, ptr %13, align 4, !tbaa !18
  %37 = call i32 @get_bits(ptr noundef %9, i32 noundef 2)
  store i32 %37, ptr %14, align 4, !tbaa !18
  %38 = call i32 @get_bits(ptr noundef %9, i32 noundef 3)
  store i32 %38, ptr %15, align 4, !tbaa !18
  %39 = load i32, ptr %10, align 4, !tbaa !18
  %40 = icmp eq i32 %39, 34
  br i1 %40, label %41, label %43

41:                                               ; preds = %26
  %42 = call i32 @get_bits(ptr noundef %9, i32 noundef 3)
  store i32 %42, ptr %16, align 4, !tbaa !18
  br label %43

43:                                               ; preds = %41, %26
  %44 = call i32 @get_bits(ptr noundef %9, i32 noundef 4)
  store i32 %44, ptr %17, align 4, !tbaa !18
  %45 = call i32 @get_bits(ptr noundef %9, i32 noundef 4)
  store i32 %45, ptr %18, align 4, !tbaa !18
  call void @skip_bits(ptr noundef %9, i32 noundef 31)
  %46 = call i32 @get_bits(ptr noundef %9, i32 noundef 1)
  store i32 %46, ptr %19, align 4, !tbaa !18
  %47 = load i32, ptr %12, align 4, !tbaa !18
  %48 = load ptr, ptr %5, align 8, !tbaa !4
  %49 = getelementptr inbounds nuw %struct.AVCodecParserContext, ptr %48, i32 0, i32 30
  store i32 %47, ptr %49, align 8, !tbaa !36
  %50 = load i32, ptr %13, align 4, !tbaa !18
  %51 = load ptr, ptr %5, align 8, !tbaa !4
  %52 = getelementptr inbounds nuw %struct.AVCodecParserContext, ptr %51, i32 0, i32 31
  store i32 %50, ptr %52, align 4, !tbaa !37
  %53 = load i32, ptr %12, align 4, !tbaa !18
  %54 = add nsw i32 %53, 8
  %55 = sub nsw i32 %54, 1
  %56 = and i32 %55, -8
  %57 = load ptr, ptr %5, align 8, !tbaa !4
  %58 = getelementptr inbounds nuw %struct.AVCodecParserContext, ptr %57, i32 0, i32 32
  store i32 %56, ptr %58, align 8, !tbaa !38
  %59 = load i32, ptr %13, align 4, !tbaa !18
  %60 = add nsw i32 %59, 8
  %61 = sub nsw i32 %60, 1
  %62 = and i32 %61, -8
  %63 = load ptr, ptr %5, align 8, !tbaa !4
  %64 = getelementptr inbounds nuw %struct.AVCodecParserContext, ptr %63, i32 0, i32 33
  store i32 %62, ptr %64, align 4, !tbaa !39
  %65 = load i32, ptr %18, align 4, !tbaa !18
  %66 = zext i32 %65 to i64
  %67 = getelementptr inbounds nuw [16 x %struct.AVRational], ptr @ff_avs2_frame_rate_tab, i64 0, i64 %66
  %68 = getelementptr inbounds nuw %struct.AVRational, ptr %67, i32 0, i32 0
  %69 = load i32, ptr %68, align 8, !tbaa !40
  %70 = load ptr, ptr %8, align 8, !tbaa !9
  %71 = getelementptr inbounds nuw %struct.AVCodecContext, ptr %70, i32 0, i32 16
  %72 = getelementptr inbounds nuw %struct.AVRational, ptr %71, i32 0, i32 0
  store i32 %69, ptr %72, align 4, !tbaa !42
  %73 = load i32, ptr %18, align 4, !tbaa !18
  %74 = zext i32 %73 to i64
  %75 = getelementptr inbounds nuw [16 x %struct.AVRational], ptr @ff_avs2_frame_rate_tab, i64 0, i64 %74
  %76 = getelementptr inbounds nuw %struct.AVRational, ptr %75, i32 0, i32 1
  %77 = load i32, ptr %76, align 4, !tbaa !56
  %78 = load ptr, ptr %8, align 8, !tbaa !9
  %79 = getelementptr inbounds nuw %struct.AVCodecContext, ptr %78, i32 0, i32 16
  %80 = getelementptr inbounds nuw %struct.AVRational, ptr %79, i32 0, i32 1
  store i32 %77, ptr %80, align 4, !tbaa !57
  %81 = load ptr, ptr %8, align 8, !tbaa !9
  %82 = getelementptr inbounds nuw %struct.AVCodecContext, ptr %81, i32 0, i32 32
  %83 = load i32, ptr %82, align 4, !tbaa !58
  %84 = load i32, ptr %19, align 4, !tbaa !18
  %85 = icmp ne i32 %84, 0
  %86 = xor i1 %85, true
  %87 = zext i1 %86 to i32
  %88 = icmp sgt i32 %83, %87
  br i1 %88, label %89, label %93

89:                                               ; preds = %43
  %90 = load ptr, ptr %8, align 8, !tbaa !9
  %91 = getelementptr inbounds nuw %struct.AVCodecContext, ptr %90, i32 0, i32 32
  %92 = load i32, ptr %91, align 4, !tbaa !58
  br label %98

93:                                               ; preds = %43
  %94 = load i32, ptr %19, align 4, !tbaa !18
  %95 = icmp ne i32 %94, 0
  %96 = xor i1 %95, true
  %97 = zext i1 %96 to i32
  br label %98

98:                                               ; preds = %93, %89
  %99 = phi i32 [ %92, %89 ], [ %97, %93 ]
  %100 = load ptr, ptr %8, align 8, !tbaa !9
  %101 = getelementptr inbounds nuw %struct.AVCodecContext, ptr %100, i32 0, i32 32
  store i32 %99, ptr %101, align 4, !tbaa !58
  %102 = load ptr, ptr %8, align 8, !tbaa !9
  %103 = load i32, ptr %10, align 4, !tbaa !18
  %104 = load i32, ptr %11, align 4, !tbaa !18
  %105 = load i32, ptr %12, align 4, !tbaa !18
  %106 = load i32, ptr %13, align 4, !tbaa !18
  %107 = load i32, ptr %14, align 4, !tbaa !18
  %108 = load i32, ptr %15, align 4, !tbaa !18
  %109 = sext i32 %108 to i64
  %110 = getelementptr inbounds [8 x i8], ptr @parse_avs2_seq_header.precision, i64 0, i64 %109
  %111 = load i8, ptr %110, align 1, !tbaa !30
  %112 = zext i8 %111 to i32
  %113 = load i32, ptr %16, align 4, !tbaa !18
  %114 = sext i32 %113 to i64
  %115 = getelementptr inbounds [8 x i8], ptr @parse_avs2_seq_header.precision, i64 0, i64 %114
  %116 = load i8, ptr %115, align 1, !tbaa !30
  %117 = zext i8 %116 to i32
  %118 = load i32, ptr %17, align 4, !tbaa !18
  %119 = load ptr, ptr %8, align 8, !tbaa !9
  %120 = getelementptr inbounds nuw %struct.AVCodecContext, ptr %119, i32 0, i32 16
  %121 = getelementptr inbounds nuw %struct.AVRational, ptr %120, i32 0, i32 0
  %122 = load i32, ptr %121, align 4, !tbaa !42
  %123 = load ptr, ptr %8, align 8, !tbaa !9
  %124 = getelementptr inbounds nuw %struct.AVCodecContext, ptr %123, i32 0, i32 16
  %125 = getelementptr inbounds nuw %struct.AVRational, ptr %124, i32 0, i32 1
  %126 = load i32, ptr %125, align 4, !tbaa !57
  %127 = load i32, ptr %19, align 4, !tbaa !18
  call void (ptr, i32, ptr, ...) @av_log(ptr noundef %102, i32 noundef 48, ptr noundef @.str, i32 noundef %103, i32 noundef %104, i32 noundef %105, i32 noundef %106, i32 noundef %107, i32 noundef %112, i32 noundef %117, i32 noundef %118, i32 noundef %122, i32 noundef %126, i32 noundef %127)
  store i32 0, ptr %22, align 4
  br label %128

128:                                              ; preds = %98, %25
  call void @llvm.lifetime.end.p0(i64 4, ptr %21) #5
  call void @llvm.lifetime.end.p0(i64 4, ptr %20) #5
  call void @llvm.lifetime.end.p0(i64 4, ptr %19) #5
  call void @llvm.lifetime.end.p0(i64 4, ptr %18) #5
  call void @llvm.lifetime.end.p0(i64 4, ptr %17) #5
  call void @llvm.lifetime.end.p0(i64 4, ptr %16) #5
  call void @llvm.lifetime.end.p0(i64 4, ptr %15) #5
  call void @llvm.lifetime.end.p0(i64 4, ptr %14) #5
  call void @llvm.lifetime.end.p0(i64 4, ptr %13) #5
  call void @llvm.lifetime.end.p0(i64 4, ptr %12) #5
  call void @llvm.lifetime.end.p0(i64 4, ptr %11) #5
  call void @llvm.lifetime.end.p0(i64 4, ptr %10) #5
  call void @llvm.lifetime.end.p0(i64 32, ptr %9) #5
  %129 = load i32, ptr %22, align 4
  switch i32 %129, label %131 [
    i32 0, label %130
    i32 1, label %130
  ]

130:                                              ; preds = %128, %128
  ret void

131:                                              ; preds = %128
  unreachable
}