; Function Attrs: nounwind uwtable
define internal fastcc void @parse_avs2_seq_header(ptr noundef writeonly captures(none) %0, ptr noundef readonly captures(address_is_null) %1, i32 noundef range(i32 1, 2147483644) %2, ptr noundef %3) unnamed_addr #0 {
  %5 = icmp samesign ult i32 %2, 15
  br i1 %5, label %122, label %6

6:                                                ; preds = %4
  %.not.i.i = icmp eq ptr %1, null
  %7 = select i1 %.not.i.i, i32 8, i32 128
  %8 = getelementptr inbounds nuw i8, ptr %0, i64 232
  store i32 1, ptr %8, align 8, !tbaa !23
  %9 = getelementptr inbounds nuw i8, ptr %0, i64 40
  store i32 1, ptr %9, align 8, !tbaa !24
  %10 = load i32, ptr %1, align 1, !tbaa !19
  %11 = and i32 %10, 255
  %12 = getelementptr inbounds nuw i8, ptr %1, i64 1
  %13 = load i32, ptr %12, align 1, !tbaa !19
  %14 = and i32 %13, 255
  %15 = tail call i32 @llvm.umin.i32(i32 %7, i32 16)
  %16 = or disjoint i32 %15, 2
  %17 = tail call i32 @llvm.umin.i32(i32 %7, i32 %16)
  %18 = lshr i32 %17, 3
  %19 = zext nneg i32 %18 to i64
  %20 = getelementptr inbounds nuw i8, ptr %1, i64 %19
  %21 = load i32, ptr %20, align 1, !tbaa !19
  %22 = tail call i32 @llvm.bswap.i32(i32 %21)
  %23 = and i32 %17, 2
  %24 = shl i32 %22, %23
  %25 = lshr i32 %24, 18
  %26 = add nuw nsw i32 %17, 14
  %27 = tail call i32 @llvm.umin.i32(i32 %7, i32 %26)
  %28 = lshr i32 %27, 3
  %29 = zext nneg i32 %28 to i64
  %30 = getelementptr inbounds nuw i8, ptr %1, i64 %29
  %31 = load i32, ptr %30, align 1, !tbaa !19
  %32 = tail call i32 @llvm.bswap.i32(i32 %31)
  %33 = and i32 %27, 7
  %34 = shl i32 %32, %33
  %35 = lshr i32 %34, 18
  %36 = add nuw nsw i32 %27, 14
  %37 = tail call i32 @llvm.umin.i32(i32 %7, i32 %36)
  %38 = lshr i32 %37, 3
  %39 = zext nneg i32 %38 to i64
  %40 = getelementptr inbounds nuw i8, ptr %1, i64 %39
  %41 = load i32, ptr %40, align 1, !tbaa !19
  %42 = tail call i32 @llvm.bswap.i32(i32 %41)
  %43 = and i32 %37, 7
  %44 = shl i32 %42, %43
  %45 = lshr i32 %44, 30
  %46 = add nuw nsw i32 %37, 2
  %47 = tail call i32 @llvm.umin.i32(i32 %7, i32 %46)
  %48 = lshr i32 %47, 3
  %49 = zext nneg i32 %48 to i64
  %50 = getelementptr inbounds nuw i8, ptr %1, i64 %49
  %51 = load i32, ptr %50, align 1, !tbaa !19
  %52 = tail call i32 @llvm.bswap.i32(i32 %51)
  %53 = and i32 %47, 7
  %54 = shl i32 %52, %53
  %55 = lshr i32 %54, 29
  %56 = add nuw nsw i32 %47, 3
  %57 = tail call i32 @llvm.umin.i32(i32 %7, i32 %56)
  %58 = icmp eq i32 %11, 34
  br i1 %58, label %59, label %70

59:                                               ; preds = %6
  %60 = lshr i32 %57, 3
  %61 = zext nneg i32 %60 to i64
  %62 = getelementptr inbounds nuw i8, ptr %1, i64 %61
  %63 = load i32, ptr %62, align 1, !tbaa !19
  %64 = tail call i32 @llvm.bswap.i32(i32 %63)
  %65 = and i32 %57, 7
  %66 = shl i32 %64, %65
  %67 = lshr i32 %66, 29
  %68 = add nuw nsw i32 %57, 3
  %69 = zext nneg i32 %67 to i64
  br label %70

70:                                               ; preds = %59, %6
  %.sroa.14.0 = phi i32 [ %68, %59 ], [ %57, %6 ]
  %.0 = phi i64 [ %69, %59 ], [ 1, %6 ]
  %71 = lshr i32 %.sroa.14.0, 3
  %72 = zext nneg i32 %71 to i64
  %73 = getelementptr inbounds nuw i8, ptr %1, i64 %72
  %74 = load i32, ptr %73, align 1, !tbaa !19
  %75 = tail call i32 @llvm.bswap.i32(i32 %74)
  %76 = and i32 %.sroa.14.0, 7
  %77 = shl i32 %75, %76
  %78 = lshr i32 %77, 28
  %79 = add nuw nsw i32 %.sroa.14.0, 4
  %80 = lshr i32 %79, 3
  %81 = zext nneg i32 %80 to i64
  %82 = getelementptr inbounds nuw i8, ptr %1, i64 %81
  %83 = load i32, ptr %82, align 1, !tbaa !19
  %84 = tail call i32 @llvm.bswap.i32(i32 %83)
  %85 = and i32 %79, 7
  %86 = shl i32 %84, %85
  %87 = lshr i32 %86, 28
  %88 = add nuw nsw i32 %.sroa.14.0, 39
  %89 = lshr i32 %88, 3
  %90 = zext nneg i32 %89 to i64
  %91 = getelementptr inbounds nuw i8, ptr %1, i64 %90
  %92 = load i32, ptr %91, align 1, !tbaa !19
  %93 = tail call i32 @llvm.bswap.i32(i32 %92)
  %94 = and i32 %88, 7
  %95 = shl i32 %93, %94
  %96 = lshr i32 %95, 31
  %97 = getelementptr inbounds nuw i8, ptr %0, i64 312
  store i32 %25, ptr %97, align 8, !tbaa !25
  %98 = getelementptr inbounds nuw i8, ptr %0, i64 316
  store i32 %35, ptr %98, align 4, !tbaa !26
  %99 = add nuw nsw i32 %25, 7
  %100 = and i32 %99, 32760
  %101 = getelementptr inbounds nuw i8, ptr %0, i64 320
  store i32 %100, ptr %101, align 8, !tbaa !27
  %102 = add nuw nsw i32 %35, 7
  %103 = and i32 %102, 32760
  %104 = getelementptr inbounds nuw i8, ptr %0, i64 324
  store i32 %103, ptr %104, align 4, !tbaa !28
  %105 = zext nneg i32 %87 to i64
  %106 = getelementptr inbounds nuw [16 x %struct.AVRational], ptr @ff_avs2_frame_rate_tab, i64 0, i64 %105
  %107 = load i32, ptr %106, align 8, !tbaa !29
  %108 = getelementptr inbounds nuw i8, ptr %3, i64 100
  store i32 %107, ptr %108, align 4, !tbaa !31
  %109 = getelementptr inbounds nuw i8, ptr %106, i64 4
  %110 = load i32, ptr %109, align 4, !tbaa !47
  %111 = getelementptr inbounds nuw i8, ptr %3, i64 104
  store i32 %110, ptr %111, align 4, !tbaa !48
  %112 = getelementptr inbounds nuw i8, ptr %3, i64 172
  %113 = load i32, ptr %112, align 4, !tbaa !49
  %.not = icmp sgt i32 %95, -1
  %114 = zext i1 %.not to i32
  %. = tail call i32 @llvm.smax.i32(i32 %113, i32 %114)
  store i32 %., ptr %112, align 4, !tbaa !49
  %115 = zext nneg i32 %55 to i64
  %116 = getelementptr inbounds nuw [8 x i8], ptr @parse_avs2_seq_header.precision, i64 0, i64 %115
  %117 = load i8, ptr %116, align 1, !tbaa !19
  %118 = zext i8 %117 to i32
  %119 = getelementptr inbounds nuw [8 x i8], ptr @parse_avs2_seq_header.precision, i64 0, i64 %.0
  %120 = load i8, ptr %119, align 1, !tbaa !19
  %121 = zext i8 %120 to i32
  tail call void (ptr, i32, ptr, ...) @av_log(ptr noundef %3, i32 noundef 48, ptr noundef nonnull @.str, i32 noundef %11, i32 noundef %14, i32 noundef %25, i32 noundef %35, i32 noundef %45, i32 noundef %118, i32 noundef %121, i32 noundef %78, i32 noundef %107, i32 noundef %110, i32 noundef %96) #3
  br label %122

122:                                              ; preds = %4, %70
  ret void
}